Certificate:
    Data:
        Version: 3 (0x2)
        Serial Number: 1 (0x1)
        Signature Algorithm: sha1WithRSAEncryption
        Issuer: DC=org, DC=cheese, O=Cheese, O=Cheese 2, OU=Simple Signing Section, OU=Simple Signing Section 2, CN=Simple Signing CA, CN=Simple Signing CA 2, C=FR, C=US, L=TOULOUSE, L=LYON, ST=Signing State, ST=Signing State 2/emailAddress=simple@signing.com/emailAddress=simple2@signing.com
        Validity
            Not Before: Jan  8 17:22:35 2021 GMT
            Not After : Jan  8 17:22:35 2023 GMT
        Subject: DC=org, DC=cheese, O=Cheese, O=Cheese 2, OU=Simple Signing Section, OU=Simple Signing Section 2, CN=*.cheese.org, CN=*.cheese.com, C=FR, C=US, L=TOULOUSE, L=LYON, ST=Cheese org state, ST=Cheese com state/emailAddress=cert@cheese.org/emailAddress=cert@scheese.com
        Subject Public Key Info:
            Public Key Algorithm: rsaEncryption
                RSA Public-Key: (2048 bit)
                Modulus:
                    00:a2:b0:7e:32:5a:1a:15:d3:3d:f9:d1:1e:3d:80:
                    cc:a4:7c:3e:de:f0:e7:0f:06:f0:e0:f4:d6:04:38:
                    9b:99:d9:71:57:01:df:54:49:a2:93:f8:38:d7:2a:
                    52:4e:57:9b:98:bd:6e:b4:63:f6:38:1b:4a:71:62:
                    6e:79:60:8d:3d:bf:2c:2e:57:42:ef:f7:4e:1c:b3:
                    9d:e3:40:4b:6b:6c:9e:6b:95:b2:ee:f6:cd:1a:b2:
                    de:2b:ea:4c:b5:e1:c7:06:de:57:0a:11:b2:6d:99:
                    45:c7:13:3c:b2:12:c2:48:ae:32:f1:c8:4e:46:f9:
                    57:1e:ea:f5:5e:07:d7:6a:5c:81:60:e0:fc:05:ab:
                    53:1c:84:a0:24:48:33:6c:a7:d9:04:62:ca:c0:fd:
                    6b:d4:ed:a8:9e:d2:f7:ab:df:2d:7e:3c:2f:fb:f9:
                    05:43:19:0a:32:9a:2a:fd:b3:5f:a4:ae:16:39:87:
                    b1:f6:de:b8:cc:a3:6e:1a:73:ff:c5:a2:96:b0:61:
                    2a:5d:10:b5:33:ec:00:18:64:d4:43:63:ed:04:1e:
                    b4:d5:0d:99:5e:f4:26:16:e8:ab:b4:42:ff:60:16:
                    5c:7a:92:58:a2:41:f5:1d:cc:2c:ff:b9:af:e7:b1:
                    71:0c:51:d0:99:df:85:16:22:22:4b:2c:fa:14:58:
                    bf:91
                Exponent: 65537 (0x10001)
        X509v3 extensions:
            X509v3 Key Usage: critical
                Digital Signature, Key Encipherment
            X509v3 Basic Constraints: 
                CA:FALSE
            X509v3 Extended Key Usage: 
                TLS Web Server Authentication, TLS Web Client Authentication
            X509v3 Subject Key Identifier: 
                9F:C2:06:E8:B1:A7:2C:4B:35:26:CC:EB:5E:E3:C2:DC:C5:F3:C7:C0
            X509v3 Authority Key Identifier: 
                keyid:C5:3A:3C:5F:53:A9:FD:AD:3C:B8:49:63:87:27:98:63:3A:D2:BB:5A

            X509v3 Subject Alternative Name: 
                DNS:*.cheese.org, DNS:*.cheese.net, DNS:*.cheese.com, IP Address:10.0.1.0, IP Address:10.0.1.2, email:test@cheese.org, email:test@cheese.net
    Signature Algorithm: sha1WithRSAEncryption
         94:22:99:15:ae:98:99:98:eb:83:11:b5:c0:a9:2f:f3:e8:33:
         dc:b2:81:43:f4:51:86:7a:9f:b9:b9:3b:48:48:58:5e:2d:86:
         a3:e2:6e:03:24:ff:5a:50:73:65:4d:ff:dd:ef:cc:ec:76:09:
         3a:51:30:cd:39:2e:54:b3:66:0e:9e:a5:66:c6:d0:aa:75:1b:
         7e:37:4f:fd:2d:91:5d:49:fa:c3:a4:0b:12:f2:8b:68:b3:d7:
         15:ab:99:3f:2f:2d:37:a1:45:52:05:9c:4f:41:4a:ba:7a:3a:
         7f:6f:6d:ab:08:db:fc:75:dd:70:f5:4a:ca:6c:8f:d2:d9:31:
         29:f4:7f:79:ab:85:67:8f:3b:e1:c3:08:40:c3:62:e6:d6:9c:
         0d:09:07:e3:66:af:a7:f9:19:fb:4b:30:13:e3:d7:d1:fc:a2:
         48:05:5a:9f:6d:91:07:eb:09:e7:13:2c:3d:17:d2:59:9e:40:
         dd:d0:d1:3f:9e:28:c6:be:a7:9c:5d:07:d0:09:00:d2:56:39:
         5c:73:89:8a:ba:9e:b7:a2:35:91:3d:2f:71:6c:36:ce:c2:fe:
         12:79:9f:5c:6c:a6:17:c9:a6:dc:16:03:06:1a:b0:d0:a9:8a:
         80:d3:c9:77:34:86:2f:55:e5:42:80:4e:ec:b1:87:fa:bd:70:
         2a:e7:e1:c0
-----BEGIN CERTIFICATE-----
MIIGWjCCBUKgAwIBAgIBATANBgkqhkiG9w0BAQUFADCCAYQxEzARBgoJkiaJk/Is
ZAEZFgNvcmcxFjAUBgoJkiaJk/IsZAEZFgZjaGVlc2UxDzANBgNVBAoMBkNoZWVz
ZTERMA8GA1UECgwIQ2hlZXNlIDIxHzAdBgNVBAsMFlNpbXBsZSBTaWduaW5nIFNl
Y3Rpb24xITAfBgNVBAsMGFNpbXBsZSBTaWduaW5nIFNlY3Rpb24gMjEaMBgGA1UE
AwwRU2ltcGxlIFNpZ25pbmcgQ0ExHDAaBgNVBAMME1NpbXBsZSBTaWduaW5nIENB
IDIxCzAJBgNVBAYTAkZSMQswCQYDVQQGEwJVUzERMA8GA1UEBwwIVE9VTE9VU0Ux
DTALBgNVBAcMBExZT04xFjAUBgNVBAgMDVNpZ25pbmcgU3RhdGUxGDAWBgNVBAgM
D1NpZ25pbmcgU3RhdGUgMjEhMB8GCSqGSIb3DQEJARYSc2ltcGxlQHNpZ25pbmcu
Y29tMSIwIAYJKoZIhvcNAQkBFhNzaW1wbGUyQHNpZ25pbmcuY29tMB4XDTIxMDEw
ODE3MjIzNVoXDTIzMDEwODE3MjIzNVowggF2MRMwEQYKCZImiZPyLGQBGRYDb3Jn
MRYwFAYKCZImiZPyLGQBGRYGY2hlZXNlMQ8wDQYDVQQKDAZDaGVlc2UxETAPBgNV
BAoMCENoZWVzZSAyMR8wHQYDVQQLDBZTaW1wbGUgU2lnbmluZyBTZWN0aW9uMSEw
HwYDVQQLDBhTaW1wbGUgU2lnbmluZyBTZWN0aW9uIDIxFTATBgNVBAMMDCouY2hl
ZXNlLm9yZzEVMBMGA1UEAwwMKi5jaGVlc2UuY29tMQswCQYDVQQGEwJGUjELMAkG
A1UEBhMCVVMxETAPBgNVBAcMCFRPVUxPVVNFMQ0wCwYDVQQHDARMWU9OMRkwFwYD
VQQIDBBDaGVlc2Ugb3JnIHN0YXRlMRkwFwYDVQQIDBBDaGVlc2UgY29tIHN0YXRl
MR4wHAYJKoZIhvcNAQkBFg9jZXJ0QGNoZWVzZS5vcmcxHzAdBgkqhkiG9w0BCQEW
EGNlcnRAc2NoZWVzZS5jb20wggEiMA0GCSqGSIb3DQEBAQUAA4IBDwAwggEKAoIB
AQCisH4yWhoV0z350R49gMykfD7e8OcPBvDg9NYEOJuZ2XFXAd9USaKT+DjXKlJO
V5uYvW60Y/Y4G0pxYm55YI09vywuV0Lv904cs53jQEtrbJ5rlbLu9s0ast4r6ky1
4ccG3lcKEbJtmUXHEzyyEsJIrjLxyE5G+Vce6vVeB9dqXIFg4PwFq1MchKAkSDNs
p9kEYsrA/WvU7aie0ver3y1+PC/7+QVDGQoymir9s1+krhY5h7H23rjMo24ac//F
opawYSpdELUz7AAYZNRDY+0EHrTVDZle9CYW6Ku0Qv9gFlx6kliiQfUdzCz/ua/n
sXEMUdCZ34UWIiJLLPoUWL+RAgMBAAGjgeAwgd0wDgYDVR0PAQH/BAQDAgWgMAkG
A1UdEwQCMAAwHQYDVR0lBBYwFAYIKwYBBQUHAwEGCCsGAQUFBwMCMB0GA1UdDgQW
BBSfwgbosacsSzUmzOte48LcxfPHwDAfBgNVHSMEGDAWgBTFOjxfU6n9rTy4SWOH
J5hjOtK7WjBhBgNVHREEWjBYggwqLmNoZWVzZS5vcmeCDCouY2hlZXNlLm5ldIIM
Ki5jaGVlc2UuY29thwQKAAEAhwQKAAECgQ90ZXN0QGNoZWVzZS5vcmeBD3Rlc3RA
Y2hlZXNlLm5ldDANBgkqhkiG9w0BAQUFAAOCAQEAlCKZFa6YmZjrgxG1wKkv8+gz
3LKBQ/RRhnqfubk7SEhYXi2Go+JuAyT/WlBzZU3/3e/M7HYJOlEwzTkuVLNmDp6l
ZsbQqnUbfjdP/S2RXUn6w6QLEvKLaLPXFauZPy8tN6FFUgWcT0FKuno6f29tqwjb
/HXdcPVKymyP0tkxKfR/eauFZ4874cMIQMNi5tacDQkH42avp/kZ+0swE+PX0fyi
SAVan22RB+sJ5xMsPRfSWZ5A3dDRP54oxr6nnF0H0AkA0lY5XHOJirqet6I1kT0v
cWw2zsL+EnmfXGymF8mm3BYDBhqw0KmKgNPJdzSGL1XlQoBO7LGH+r1wKufhwA==
-----END CERTIFICATE-----
