Certificate:
    Data:
        Version: 3 (0x2)
        Serial Number: 2 (0x2)
        Signature Algorithm: sha1WithRSAEncryption
        Issuer: DC=org, DC=cheese, O=Cheese, O=Cheese 2, OU=Cheese Section, OU=Cheese Section 2, CN=Simple Root CA, CN=Simple Root CA 2, C=FR, C=US, L=TOULOUSE, L=LYON, ST=Root State, ST=Root State 2/emailAddress=root@signing.com/emailAddress=root2@signing.com
        Validity
            Not Before: Jan  8 17:22:29 2021 GMT
            Not After : Dec 15 17:22:29 2120 GMT
        Subject: DC=org, DC=cheese, O=Cheese, O=Cheese 2, OU=Simple Signing Section, OU=Simple Signing Section 2, CN=Simple Signing CA, CN=Simple Signing CA 2, C=FR, C=US, L=TOULOUSE, L=LYON, ST=Signing State, ST=Signing State 2/emailAddress=simple@signing.com/emailAddress=simple2@signing.com
        Subject Public Key Info:
            Public Key Algorithm: rsaEncryption
                RSA Public-Key: (2048 bit)
                Modulus:
                    00:b3:d4:1e:ee:7d:a5:bb:31:b4:df:c2:b9:a8:d1:
                    63:5e:b7:0d:45:9a:43:54:be:00:b2:06:24:d2:e4:
                    ae:c7:9b:78:0a:23:94:60:b8:e9:fd:0a:07:f4:af:
                    a3:5a:45:7a:5f:5d:9f:d6:65:50:4f:a7:72:24:ae:
                    af:45:8e:1b:2f:c0:c8:74:8b:a3:0c:ef:08:be:91:
                    2c:41:5a:95:98:7d:df:1d:21:6f:ca:28:f2:b4:50:
                    9b:9a:5e:76:0d:f9:0d:6c:09:bf:eb:3d:e4:45:94:
                    fe:ef:23:61:c5:f2:18:fc:2d:08:d4:32:67:21:20:
                    48:44:9a:a0:aa:14:3c:21:e4:c8:4e:6b:92:29:b8:
                    33:05:05:ae:fa:d8:ef:57:af:ff:c3:86:31:3f:8a:
                    74:2f:7d:ff:fd:17:8c:f4:a2:4d:13:d5:fb:e2:db:
                    ea:01:50:4e:41:d1:5a:60:7f:7b:85:19:64:79:09:
                    0e:f8:3f:f9:31:f0:c9:1e:0a:37:73:1f:1d:a5:4e:
                    3e:91:6a:b2:cd:7e:52:61:a7:7e:5c:b6:30:e7:e8:
                    8a:11:20:2e:ab:cb:8d:7d:bb:f9:9c:41:a2:70:e7:
                    e8:ce:7d:e8:e2:50:df:cd:7e:db:cf:cb:09:89:00:
                    07:5f:49:c9:e6:22:6b:b6:3e:21:94:a6:ad:3e:24:
                    72:1d
                Exponent: 65537 (0x10001)
        X509v3 extensions:
            X509v3 Key Usage: critical
                Certificate Sign, CRL Sign
            X509v3 Basic Constraints: critical
                CA:TRUE, pathlen:0
            X509v3 Subject Key Identifier: 
                C5:3A:3C:5F:53:A9:FD:AD:3C:B8:49:63:87:27:98:63:3A:D2:BB:5A
            X509v3 Authority Key Identifier: 
                keyid:15:F6:19:BB:E2:23:CD:BE:63:AA:F4:39:4A:E4:1F:28:86:9B:A4:9C

    Signature Algorithm: sha1WithRSAEncryption
         1e:d4:dd:2e:be:5f:36:7a:d3:82:af:ba:37:ff:df:d5:8c:9a:
         e7:13:91:89:b6:30:ce:62:2e:22:f2:6c:e1:13:92:a8:a2:ef:
         a4:e5:4a:02:53:bc:8e:78:22:28:c7:65:17:64:f6:a2:e1:c5:
         29:f7:d7:ca:1f:f9:1f:57:5a:81:2d:ad:53:d1:fd:01:9b:ef:
         ae:2b:31:6a:24:01:7b:0f:10:81:de:33:f1:86:d6:a8:9f:55:
         55:91:56:ca:51:fb:bf:e7:36:95:a2:d7:f1:7d:6e:67:b7:cc:
         32:07:42:9e:8e:6f:f5:2f:36:64:f2:5c:0e:9b:5d:46:22:3b:
         13:71:4f:3d:1e:49:64:16:1d:fb:77:a1:a5:7d:ff:5a:e5:22:
         27:ba:ce:af:3d:56:17:77:b2:e5:fe:38:df:12:5e:5a:2d:ef:
         32:bd:9b:f3:f7:5f:55:2b:5f:46:c2:5d:e9:a4:e1:7b:5a:b2:
         89:19:be:94:85:91:56:a9:d2:a3:fc:f5:8c:3d:08:c6:6f:a7:
         25:3a:c8:a9:82:0c:6f:66:8f:a8:04:39:f0:29:22:71:40:2a:
         8f:fa:b8:ed:83:05:f7:09:25:5d:7a:10:55:9f:12:a5:b8:ec:
         da:e0:0d:62:14:7f:50:bc:bc:89:76:a9:bb:5e:41:a8:46:4b:
         d1:8d:63:e4
-----BEGIN CERTIFICATE-----
MIIFzzCCBLegAwIBAgIBAjANBgkqhkiG9w0BAQUFADCCAWQxEzARBgoJkiaJk/Is
ZAEZFgNvcmcxFjAUBgoJkiaJk/IsZAEZFgZjaGVlc2UxDzANBgNVBAoMBkNoZWVz
ZTERMA8GA1UECgwIQ2hlZXNlIDIxFzAVBgNVBAsMDkNoZWVzZSBTZWN0aW9uMRkw
FwYDVQQLDBBDaGVlc2UgU2VjdGlvbiAyMRcwFQYDVQQDDA5TaW1wbGUgUm9vdCBD
QTEZMBcGA1UEAwwQU2ltcGxlIFJvb3QgQ0EgMjELMAkGA1UEBhMCRlIxCzAJBgNV
BAYTAlVTMREwDwYDVQQHDAhUT1VMT1VTRTENMAsGA1UEBwwETFlPTjETMBEGA1UE
CAwKUm9vdCBTdGF0ZTEVMBMGA1UECAwMUm9vdCBTdGF0ZSAyMR8wHQYJKoZIhvcN
AQkBFhByb290QHNpZ25pbmcuY29tMSAwHgYJKoZIhvcNAQkBFhFyb290MkBzaWdu
aW5nLmNvbTAgFw0yMTAxMDgxNzIyMjlaGA8yMTIwMTIxNTE3MjIyOVowggGEMRMw
EQYKCZImiZPyLGQBGRYDb3JnMRYwFAYKCZImiZPyLGQBGRYGY2hlZXNlMQ8wDQYD
VQQKDAZDaGVlc2UxETAPBgNVBAoMCENoZWVzZSAyMR8wHQYDVQQLDBZTaW1wbGUg
U2lnbmluZyBTZWN0aW9uMSEwHwYDVQQLDBhTaW1wbGUgU2lnbmluZyBTZWN0aW9u
IDIxGjAYBgNVBAMMEVNpbXBsZSBTaWduaW5nIENBMRwwGgYDVQQDDBNTaW1wbGUg
U2lnbmluZyBDQSAyMQswCQYDVQQGEwJGUjELMAkGA1UEBhMCVVMxETAPBgNVBAcM
CFRPVUxPVVNFMQ0wCwYDVQQHDARMWU9OMRYwFAYDVQQIDA1TaWduaW5nIFN0YXRl
MRgwFgYDVQQIDA9TaWduaW5nIFN0YXRlIDIxITAfBgkqhkiG9w0BCQEWEnNpbXBs
ZUBzaWduaW5nLmNvbTEiMCAGCSqGSIb3DQEJARYTc2ltcGxlMkBzaWduaW5nLmNv
bTCCASIwDQYJKoZIhvcNAQEBBQADggEPADCCAQoCggEBALPUHu59pbsxtN/CuajR
Y163DUWaQ1S+ALIGJNLkrsebeAojlGC46f0KB/Svo1pFel9dn9ZlUE+nciSur0WO
Gy/AyHSLowzvCL6RLEFalZh93x0hb8oo8rRQm5pedg35DWwJv+s95EWU/u8jYcXy
GPwtCNQyZyEgSESaoKoUPCHkyE5rkim4MwUFrvrY71ev/8OGMT+KdC99//0XjPSi
TRPV++Lb6gFQTkHRWmB/e4UZZHkJDvg/+THwyR4KN3MfHaVOPpFqss1+UmGnfly2
MOfoihEgLqvLjX27+ZxBonDn6M596OJQ381+28/LCYkAB19JyeYia7Y+IZSmrT4k
ch0CAwEAAaNmMGQwDgYDVR0PAQH/BAQDAgEGMBIGA1UdEwEB/wQIMAYBAf8CAQAw
HQYDVR0OBBYEFMU6PF9Tqf2tPLhJY4cnmGM60rtaMB8GA1UdIwQYMBaAFBX2Gbvi
I82+Y6r0OUrkHyiGm6ScMA0GCSqGSIb3DQEBBQUAA4IBAQAe1N0uvl82etOCr7o3
/9/VjJrnE5GJtjDOYi4i8mzhE5Koou+k5UoCU7yOeCIox2UXZPai4cUp99fKH/kf
V1qBLa1T0f0Bm++uKzFqJAF7DxCB3jPxhtaon1VVkVbKUfu/5zaVotfxfW5nt8wy
B0Kejm/1LzZk8lwOm11GIjsTcU89HklkFh37d6Glff9a5SInus6vPVYXd7Ll/jjf
El5aLe8yvZvz919VK19Gwl3ppOF7WrKJGb6UhZFWqdKj/PWMPQjGb6clOsipggxv
Zo+oBDnwKSJxQCqP+rjtgwX3CSVdehBVnxKluOza4A1iFH9QvLyJdqm7XkGoRkvR
jWPk
-----END CERTIFICATE-----
